; Function Attrs: null_pointer_is_valid sspstrong uwtable
define internal i32 @glusterfs_gfs3_3_op_rename_reply(ptr noundef %0, ptr readnone captures(none) %1, ptr noundef %2, ptr readnone captures(none) %3) #0 {
  %5 = alloca ptr, align 8
  %6 = alloca ptr, align 8
  call void @llvm.lifetime.start.p0(i64 8, ptr nonnull %5) #4
  call void @llvm.lifetime.start.p0(i64 8, ptr nonnull %6) #4
  %7 = load i32, ptr @hf_gluster_op_ret, align 4
  %8 = tail call i32 @dissect_rpc_uint32(ptr noundef %0, ptr noundef %2, i32 noundef %7, i32 noundef 0)
  %9 = tail call i32 @tvb_get_ntohl(ptr noundef %0, i32 noundef %8)
  %10 = load i32, ptr @hf_gluster_op_errno, align 4
  %11 = tail call ptr @proto_tree_add_int(ptr noundef %2, i32 noundef %10, ptr noundef %0, i32 noundef %8, i32 noundef 4, i32 noundef %9)
  %12 = tail call ptr @val_to_str_ext_const(i32 noundef %9, ptr noundef nonnull @glusterfs_error_codes_ext, ptr noundef nonnull @.str.12)
  tail call void (ptr, ptr, ...) @proto_item_append_text(ptr noundef %11, ptr noundef nonnull @.str.11, ptr noundef %12)
  %13 = add i32 %8, 4
  %14 = load i32, ptr @hf_glusterfs_iatt, align 4
  %15 = tail call i32 @glusterfs_rpc_dissect_gf_iatt(ptr noundef %2, ptr noundef %0, i32 noundef %14, i32 noundef %13)
  %16 = load i32, ptr @ett_glusterfs_parent_iatt, align 4
  %17 = call ptr @proto_tree_add_subtree(ptr noundef %2, ptr noundef %0, i32 noundef %15, i32 noundef -1, i32 noundef %16, ptr noundef nonnull %5, ptr noundef nonnull @.str.575)
  %18 = load i32, ptr @hf_glusterfs_preparent_iatt, align 4
  %19 = call i32 @glusterfs_rpc_dissect_gf_iatt(ptr noundef %17, ptr noundef %0, i32 noundef %18, i32 noundef %15)
  %20 = load i32, ptr @hf_glusterfs_postparent_iatt, align 4
  %21 = call i32 @glusterfs_rpc_dissect_gf_iatt(ptr noundef %17, ptr noundef %0, i32 noundef %20, i32 noundef %19)
  %22 = load ptr, ptr %5, align 8
  %23 = sub i32 %21, %15
  call void @proto_item_set_len(ptr noundef %22, i32 noundef %23)
  %24 = load i32, ptr @ett_glusterfs_parent_iatt, align 4
  %25 = call ptr @proto_tree_add_subtree(ptr noundef %2, ptr noundef %0, i32 noundef %21, i32 noundef -1, i32 noundef %24, ptr noundef nonnull %6, ptr noundef nonnull @.str.576)
  %26 = load i32, ptr @hf_glusterfs_preparent_iatt, align 4
  %27 = call i32 @glusterfs_rpc_dissect_gf_iatt(ptr noundef %25, ptr noundef %0, i32 noundef %26, i32 noundef %21)
  %28 = load i32, ptr @hf_glusterfs_postparent_iatt, align 4
  %29 = call i32 @glusterfs_rpc_dissect_gf_iatt(ptr noundef %25, ptr noundef %0, i32 noundef %28, i32 noundef %27)
  %30 = load ptr, ptr %6, align 8
  %31 = sub i32 %29, %21
  call void @proto_item_set_len(ptr noundef %30, i32 noundef %31)
  %32 = load i32, ptr @hf_glusterfs_dict, align 4
  %33 = call i32 @gluster_rpc_dissect_dict(ptr noundef %2, ptr noundef %0, i32 noundef %32, i32 noundef %29)
  call void @llvm.lifetime.end.p0(i64 8, ptr nonnull %6) #4
  call void @llvm.lifetime.end.p0(i64 8, ptr nonnull %5) #4
  ret i32 %33
}